; Function Attrs: nounwind uwtable
define range(i32 -48, 1) i32 @ARKodeSetMassLSNormFactor(ptr noundef %0, double noundef %1) local_unnamed_addr #0 {
  %3 = icmp eq ptr %0, null
  br i1 %3, label %4, label %5

4:                                                ; preds = %2
  tail call void (ptr, i32, i32, ptr, ptr, ptr, ...) @arkProcessError(ptr noundef null, i32 noundef -21, i32 noundef 1653, ptr noundef nonnull @__func__.ARKodeSetMassLSNormFactor, ptr noundef nonnull @.str, ptr noundef nonnull @.str.1) #13
  br label %44

5:                                                ; preds = %2
  %6 = getelementptr inbounds nuw i8, ptr %0, i64 512
  %7 = load i32, ptr %6, align 8, !tbaa !105
  %.not = icmp eq i32 %7, 0
  br i1 %.not, label %8, label %9

8:                                                ; preds = %5
  tail call void (ptr, i32, i32, ptr, ptr, ptr, ...) @arkProcessError(ptr noundef nonnull %0, i32 noundef -48, i32 noundef 1662, ptr noundef nonnull @__func__.ARKodeSetMassLSNormFactor, ptr noundef nonnull @.str, ptr noundef nonnull @.str.16) #13
  br label %44

9:                                                ; preds = %5
  %10 = getelementptr inbounds nuw i8, ptr %0, i64 536
  %11 = load ptr, ptr %10, align 8, !tbaa !75
  %12 = tail call ptr %11(ptr noundef nonnull %0) #13
  %13 = icmp eq ptr %12, null
  br i1 %13, label %arkLs_AccessMassMem.exit, label %14

arkLs_AccessMassMem.exit:                         ; preds = %9
  tail call void (ptr, i32, i32, ptr, ptr, ptr, ...) @arkProcessError(ptr noundef nonnull %0, i32 noundef -6, i32 noundef 4109, ptr noundef nonnull @__func__.ARKodeSetMassLSNormFactor, ptr noundef nonnull @.str, ptr noundef nonnull @.str.65) #13
  br label %44

14:                                               ; preds = %9
  %15 = fcmp ogt double %1, 0.000000e+00
  br i1 %15, label %16, label %18

16:                                               ; preds = %14
  %17 = getelementptr inbounds nuw i8, ptr %12, i64 48
  store double %1, ptr %17, align 8, !tbaa !115
  br label %44

18:                                               ; preds = %14
  %19 = fcmp olt double %1, 0.000000e+00
  %20 = getelementptr inbounds nuw i8, ptr %0, i64 616
  %21 = load ptr, ptr %20, align 8, !tbaa !23
  br i1 %19, label %22, label %33

22:                                               ; preds = %18
  tail call void @N_VConst(double noundef 1.000000e+00, ptr noundef %21) #13
  %23 = load ptr, ptr %20, align 8, !tbaa !23
  %24 = tail call double @N_VDotProd(ptr noundef %23, ptr noundef %23) #13
  %25 = fcmp ugt double %24, 0.000000e+00
  br i1 %25, label %26, label %30

26:                                               ; preds = %22
  %27 = load ptr, ptr %20, align 8, !tbaa !23
  %28 = tail call double @N_VDotProd(ptr noundef %27, ptr noundef %27) #13
  %29 = tail call double @sqrt(double noundef %28) #13, !tbaa !63
  br label %30

30:                                               ; preds = %22, %26
  %31 = phi double [ %29, %26 ], [ 0.000000e+00, %22 ]
  %32 = getelementptr inbounds nuw i8, ptr %12, i64 48
  store double %31, ptr %32, align 8, !tbaa !115
  br label %44

33:                                               ; preds = %18
  %34 = tail call i64 @N_VGetLength(ptr noundef %21) #13
  %35 = icmp slt i64 %34, 1
  br i1 %35, label %41, label %36

36:                                               ; preds = %33
  %37 = load ptr, ptr %20, align 8, !tbaa !23
  %38 = tail call i64 @N_VGetLength(ptr noundef %37) #13
  %39 = sitofp i64 %38 to double
  %40 = tail call double @sqrt(double noundef %39) #13, !tbaa !63
  br label %41

41:                                               ; preds = %33, %36
  %42 = phi double [ %40, %36 ], [ 0.000000e+00, %33 ]
  %43 = getelementptr inbounds nuw i8, ptr %12, i64 48
  store double %42, ptr %43, align 8, !tbaa !115
  br label %44

44:                                               ; preds = %arkLs_AccessMassMem.exit, %16, %41, %30, %8, %4
  %.0 = phi i32 [ -21, %4 ], [ -48, %8 ], [ -6, %arkLs_AccessMassMem.exit ], [ 0, %30 ], [ 0, %41 ], [ 0, %16 ]
  ret i32 %.0
}